; Function Attrs: nounwind memory(readwrite, argmem: read) uwtable
define internal fastcc range(i32 0, 2) i32 @arkode_butcher_order5c(ptr noundef readonly captures(address_is_null) %0, ptr noundef readonly captures(address_is_null) %1, ptr noundef readonly captures(address_is_null) %2, ptr noundef readonly captures(address_is_null) %3, ptr noundef readonly captures(address_is_null) %4, i32 noundef %5) unnamed_addr #10 {
  %7 = sext i32 %5 to i64
  %8 = tail call noalias ptr @calloc(i64 noundef %7, i64 noundef 8) #16
  %9 = tail call noalias ptr @calloc(i64 noundef %7, i64 noundef 8) #16
  %10 = tail call noalias ptr @calloc(i64 noundef %7, i64 noundef 8) #16
  %11 = icmp eq ptr %1, null
  %12 = icmp eq ptr %2, null
  %or.cond.i = or i1 %11, %12
  %13 = icmp eq ptr %8, null
  %or.cond3.i = or i1 %or.cond.i, %13
  %14 = icmp slt i32 %5, 1
  %or.cond5.i = or i1 %14, %or.cond3.i
  br i1 %or.cond5.i, label %arkode_butcher_mv.exit, label %.preheader.us.preheader.i

.preheader.us.preheader.i:                        ; preds = %6
  %15 = zext nneg i32 %5 to i64
  br label %.preheader.us.i

.preheader.us.i:                                  ; preds = %._crit_edge.us.i, %.preheader.us.preheader.i
  %indvars.iv40.i = phi i64 [ 0, %.preheader.us.preheader.i ], [ %indvars.iv.next41.i, %._crit_edge.us.i ]
  %16 = getelementptr inbounds nuw ptr, ptr %1, i64 %indvars.iv40.i
  %17 = load ptr, ptr %16, align 8, !tbaa !12
  %18 = getelementptr inbounds nuw double, ptr %8, i64 %indvars.iv40.i
  %.promoted.us.i = load double, ptr %18, align 8, !tbaa !18
  br label %19

19:                                               ; preds = %19, %.preheader.us.i
  %indvars.iv.i = phi i64 [ 0, %.preheader.us.i ], [ %indvars.iv.next.i, %19 ]
  %20 = phi double [ %.promoted.us.i, %.preheader.us.i ], [ %25, %19 ]
  %21 = getelementptr inbounds nuw double, ptr %17, i64 %indvars.iv.i
  %22 = load double, ptr %21, align 8, !tbaa !18
  %23 = getelementptr inbounds nuw double, ptr %2, i64 %indvars.iv.i
  %24 = load double, ptr %23, align 8, !tbaa !18
  %25 = tail call double @llvm.fmuladd.f64(double %22, double %24, double %20)
  %indvars.iv.next.i = add nuw nsw i64 %indvars.iv.i, 1
  %exitcond.not.i = icmp eq i64 %indvars.iv.next.i, %15
  br i1 %exitcond.not.i, label %._crit_edge.us.i, label %19

._crit_edge.us.i:                                 ; preds = %19
  store double %25, ptr %18, align 8, !tbaa !18
  %indvars.iv.next41.i = add nuw nsw i64 %indvars.iv40.i, 1
  %exitcond44.not.i = icmp eq i64 %indvars.iv.next41.i, %15
  br i1 %exitcond44.not.i, label %26, label %.preheader.us.i

arkode_butcher_mv.exit:                           ; preds = %6
  tail call void @free(ptr noundef %8) #17
  tail call void @free(ptr noundef %9) #17
  tail call void @free(ptr noundef %10) #17
  br label %arkode_butcher_dot.exit

26:                                               ; preds = %._crit_edge.us.i
  %27 = icmp eq ptr %3, null
  %28 = icmp eq ptr %4, null
  %or.cond.i33 = or i1 %27, %28
  %29 = icmp eq ptr %9, null
  %or.cond3.i34 = or i1 %or.cond.i33, %29
  br i1 %or.cond3.i34, label %arkode_butcher_mv.exit47, label %.preheader.us.i37

.preheader.us.i37:                                ; preds = %26, %._crit_edge.us.i43
  %indvars.iv40.i38 = phi i64 [ %indvars.iv.next41.i44, %._crit_edge.us.i43 ], [ 0, %26 ]
  %30 = getelementptr inbounds nuw ptr, ptr %3, i64 %indvars.iv40.i38
  %31 = load ptr, ptr %30, align 8, !tbaa !12
  %32 = getelementptr inbounds nuw double, ptr %9, i64 %indvars.iv40.i38
  %.promoted.us.i39 = load double, ptr %32, align 8, !tbaa !18
  br label %33

33:                                               ; preds = %33, %.preheader.us.i37
  %indvars.iv.i40 = phi i64 [ 0, %.preheader.us.i37 ], [ %indvars.iv.next.i41, %33 ]
  %34 = phi double [ %.promoted.us.i39, %.preheader.us.i37 ], [ %39, %33 ]
  %35 = getelementptr inbounds nuw double, ptr %31, i64 %indvars.iv.i40
  %36 = load double, ptr %35, align 8, !tbaa !18
  %37 = getelementptr inbounds nuw double, ptr %4, i64 %indvars.iv.i40
  %38 = load double, ptr %37, align 8, !tbaa !18
  %39 = tail call double @llvm.fmuladd.f64(double %36, double %38, double %34)
  %indvars.iv.next.i41 = add nuw nsw i64 %indvars.iv.i40, 1
  %exitcond.not.i42 = icmp eq i64 %indvars.iv.next.i41, %15
  br i1 %exitcond.not.i42, label %._crit_edge.us.i43, label %33

._crit_edge.us.i43:                               ; preds = %33
  store double %39, ptr %32, align 8, !tbaa !18
  %indvars.iv.next41.i44 = add nuw nsw i64 %indvars.iv40.i38, 1
  %exitcond44.not.i45 = icmp eq i64 %indvars.iv.next41.i44, %15
  br i1 %exitcond44.not.i45, label %40, label %.preheader.us.i37

arkode_butcher_mv.exit47:                         ; preds = %26
  tail call void @free(ptr noundef nonnull %8) #17
  tail call void @free(ptr noundef %9) #17
  tail call void @free(ptr noundef %10) #17
  br label %arkode_butcher_dot.exit

40:                                               ; preds = %._crit_edge.us.i43
  %41 = icmp eq ptr %10, null
  br i1 %41, label %arkode_butcher_vv.exit, label %.preheader.i

.preheader.i:                                     ; preds = %40, %.preheader.i
  %indvars.iv.i51 = phi i64 [ %indvars.iv.next.i52, %.preheader.i ], [ 0, %40 ]
  %42 = getelementptr inbounds nuw double, ptr %8, i64 %indvars.iv.i51
  %43 = load double, ptr %42, align 8, !tbaa !18
  %44 = getelementptr inbounds nuw double, ptr %9, i64 %indvars.iv.i51
  %45 = load double, ptr %44, align 8, !tbaa !18
  %46 = fmul double %43, %45
  %47 = getelementptr inbounds nuw double, ptr %10, i64 %indvars.iv.i51
  store double %46, ptr %47, align 8, !tbaa !18
  %indvars.iv.next.i52 = add nuw nsw i64 %indvars.iv.i51, 1
  %exitcond.not.i53 = icmp eq i64 %indvars.iv.next.i52, %15
  br i1 %exitcond.not.i53, label %48, label %.preheader.i

arkode_butcher_vv.exit:                           ; preds = %40
  tail call void @free(ptr noundef %8) #17
  tail call void @free(ptr noundef nonnull %9) #17
  br label %arkode_butcher_dot.exit

48:                                               ; preds = %.preheader.i
  %49 = icmp eq ptr %0, null
  br i1 %49, label %arkode_butcher_dot.exit, label %.preheader

.preheader:                                       ; preds = %48, %.preheader
  %indvars.iv.i57 = phi i64 [ %indvars.iv.next.i58, %.preheader ], [ 0, %48 ]
  %50 = phi double [ %55, %.preheader ], [ 0.000000e+00, %48 ]
  %51 = getelementptr inbounds nuw double, ptr %0, i64 %indvars.iv.i57
  %52 = load double, ptr %51, align 8, !tbaa !18
  %53 = getelementptr inbounds nuw double, ptr %10, i64 %indvars.iv.i57
  %54 = load double, ptr %53, align 8, !tbaa !18
  %55 = tail call double @llvm.fmuladd.f64(double %52, double %54, double %50)
  %indvars.iv.next.i58 = add nuw nsw i64 %indvars.iv.i57, 1
  %exitcond.not.i59 = icmp eq i64 %indvars.iv.next.i58, %15
  br i1 %exitcond.not.i59, label %56, label %.preheader

56:                                               ; preds = %.preheader
  tail call void @free(ptr noundef %8) #17
  tail call void @free(ptr noundef %9) #17
  tail call void @free(ptr noundef nonnull %10) #17
  %57 = fadd double %55, -5.000000e-02
  %58 = tail call double @llvm.fabs.f64(double %57)
  %59 = fcmp ule double %58, 0x3E50000000000000
  %60 = zext i1 %59 to i32
  br label %arkode_butcher_dot.exit

arkode_butcher_dot.exit:                          ; preds = %48, %56, %arkode_butcher_vv.exit, %arkode_butcher_mv.exit47, %arkode_butcher_mv.exit
  %.0 = phi i32 [ 0, %arkode_butcher_mv.exit ], [ 0, %arkode_butcher_mv.exit47 ], [ 0, %arkode_butcher_vv.exit ], [ %60, %56 ], [ 0, %48 ]
  ret i32 %.0
}